c__builtin__
set
p0
((lp1
S'13b14af3b7c721a248ec089594a03b7f#201103251220'
p2
aS'13b1246ec998254334954a3babac495c#200910211250'
p3
aS'13b143ab74bc9e3fa41f9602cca7930b#201008111350'
p4
aS'13b00abf7ea757a4a4de1618c8411924#201103131800'
p5
aS'13b2679613532fcf00049690df9a6d45#201107151650'
p6
aS'13b223abffbccbca9a8ea0595bfe2530#201202291410'
p7
aS'13b4cbd453bf208e78c3d7de74fa6ce0#201302241640'
p8
aS'13b1ed45c2eeff4c3bae8ac23fceb7fb#201004061330'
p9
aS'13b2cf9e77e325011167b5059e929ef8#201101091010'
p10
aS'13b1b1630dbfae771f5123e1281c6183#201107141300'
p11
aS'13b02b24c5ab6e83f0961763e8a88fe8#201107011220'
p12
aS'13b0504b1e3861e71d2795713aa7b10e#201101091110'
p13
aS'13b306a926ced13420f7b300410db136#201008230800'
p14
aS'13b5288f4b9a98e177419e1746cb3440#201207120930'
p15
aS'13b03272b7e269687a6b2915057fe71a#201006100650'
p16
aS'13b2ee90790d01e1aeb1b3084fb765e6#201102210930'
p17
aS'13b30121bddf1593c46382d85fa87609#201104190900'
p18
aS'13b48954c11948cf2c46b2660ee6593f#201107220850'
p19
aS'13b344d489545efc376c9d37f3d1ff18#201008271410'
p20
aS'13b002807976fe6baf25398a889cf358#201206121450'
p21
aS'13b453eca5d9d60d893269613e997e1d#201304301540'
p22
aS'13b0a9ffdf863da0f6b393b81a611d5c#201105050250'
p23
aS'13b3de99fb1472d45d2659fdde56fd93#201212281400'
p24
aS'13b4fc85d5683113395be8eef6943975#201206021310'
p25
aS'13b53d4c09c4585537fd5ca035e28aa0#201009191250'
p26
aS'13b18b8b9e1d046397378bd58c86b0f4#201301040950'
p27
aS'13b14a6397f39cba5e00eea998a355d1#201010040720'
p28
aS'13b09f988bc9421bafd74e49f6517ced#201205170910'
p29
aS'13b1dccecb220bd25c41520614c5bbbc#201303211300'
p30
aS'13b5071de6ad406223b9d5f18a00087c#201108020600'
p31
aS'13b3694e85211f41c12b4372e6ffe13f#201008290640'
p32
aS'13b2cab5949491ed43285754acb8d56f#201101121310'
p33
aS'13b233a1a68b52aed9dba9a6853cb0cb#201012021400'
p34
aS'13b139e6787e2330d89c7bf97ed97652#201105031430'
p35
aS'13b28d8d414e10a1407ce9538d3f877b#201105050650'
p36
aS'13b348006a94bbd09474a672eb74dda7#201104251330'
p37
aS'13b36c1a5fc4d4a49829b1bc573040ef#201111260640'
p38
aS'13b0bd6d7c9fc8e096f04bf408e850e9#201104170900'
p39
aS'13b23f53d3ef2afcc681150d3870c87f#201102121300'
p40
atp41
Rp42
.